target datalayout = "e-m:e-p270:32:32-p271:32:32-p272:64:64-i64:64-i128:128-f80:128-n8:16:32:64-S128"
target triple = "x86_64-pc-linux-gnu"

%struct.ccm128_context = type { %union.anon, %union.anon, i64, ptr, ptr }
%union.anon = type { [2 x i64] }

; Function Attrs: nounwind uwtable
define i32 @CRYPTO_ccm128_setiv(ptr noundef %0, ptr noundef %1, i64 noundef %2, i64 noundef %3) #0 {
  %5 = alloca i32, align 4
  %6 = alloca ptr, align 8
  %7 = alloca ptr, align 8
  %8 = alloca i64, align 8
  %9 = alloca i64, align 8
  %10 = alloca i32, align 4
  %11 = alloca i32, align 4
  store ptr %0, ptr %6, align 8, !tbaa !3
  store ptr %1, ptr %7, align 8, !tbaa !17
  store i64 %2, ptr %8, align 8, !tbaa !19
  store i64 %3, ptr %9, align 8, !tbaa !19
  call void @llvm.lifetime.start.p0(i64 4, ptr %10) #4
  %12 = load ptr, ptr %6, align 8, !tbaa !3
  %13 = getelementptr inbounds nuw %struct.ccm128_context, ptr %12, i32 0, i32 0
  %14 = getelementptr inbounds [16 x i8], ptr %13, i64 0, i64 0
  %15 = load i8, ptr %14, align 8, !tbaa !11
  %16 = zext i8 %15 to i32
  %17 = and i32 %16, 7
  store i32 %17, ptr %10, align 4, !tbaa !8
  %18 = load i64, ptr %8, align 8, !tbaa !19
  %19 = load i32, ptr %10, align 4, !tbaa !8
  %20 = sub i32 14, %19
  %21 = zext i32 %20 to i64
  %22 = icmp ult i64 %18, %21
  br i1 %22, label %23, label %24

23:                                               ; preds = %4
  store i32 -1, ptr %5, align 4
  store i32 1, ptr %11, align 4
  br label %94

24:                                               ; preds = %4
  %25 = load i32, ptr %10, align 4, !tbaa !8
  %26 = icmp uge i32 %25, 3
  br i1 %26, label %27, label %52

27:                                               ; preds = %24
  %28 = load i64, ptr %9, align 8, !tbaa !19
  %29 = lshr i64 %28, 56
  %30 = trunc i64 %29 to i8
  %31 = load ptr, ptr %6, align 8, !tbaa !3
  %32 = getelementptr inbounds nuw %struct.ccm128_context, ptr %31, i32 0, i32 0
  %33 = getelementptr inbounds [16 x i8], ptr %32, i64 0, i64 8
  store i8 %30, ptr %33, align 8, !tbaa !11
  %34 = load i64, ptr %9, align 8, !tbaa !19
  %35 = lshr i64 %34, 48
  %36 = trunc i64 %35 to i8
  %37 = load ptr, ptr %6, align 8, !tbaa !3
  %38 = getelementptr inbounds nuw %struct.ccm128_context, ptr %37, i32 0, i32 0
  %39 = getelementptr inbounds [16 x i8], ptr %38, i64 0, i64 9
  store i8 %36, ptr %39, align 1, !tbaa !11
  %40 = load i64, ptr %9, align 8, !tbaa !19
  %41 = lshr i64 %40, 40
  %42 = trunc i64 %41 to i8
  %43 = load ptr, ptr %6, align 8, !tbaa !3
  %44 = getelementptr inbounds nuw %struct.ccm128_context, ptr %43, i32 0, i32 0
  %45 = getelementptr inbounds [16 x i8], ptr %44, i64 0, i64 10
  store i8 %42, ptr %45, align 2, !tbaa !11
  %46 = load i64, ptr %9, align 8, !tbaa !19
  %47 = lshr i64 %46, 32
  %48 = trunc i64 %47 to i8
  %49 = load ptr, ptr %6, align 8, !tbaa !3
  %50 = getelementptr inbounds nuw %struct.ccm128_context, ptr %49, i32 0, i32 0
  %51 = getelementptr inbounds [16 x i8], ptr %50, i64 0, i64 11
  store i8 %48, ptr %51, align 1, !tbaa !11
  br label %56

52:                                               ; preds = %24
  %53 = load ptr, ptr %6, align 8, !tbaa !3
  %54 = getelementptr inbounds nuw %struct.ccm128_context, ptr %53, i32 0, i32 0
  %55 = getelementptr inbounds [2 x i64], ptr %54, i64 0, i64 1
  store i64 0, ptr %55, align 8, !tbaa !11
  br label %56

56:                                               ; preds = %52, %27
  %57 = load i64, ptr %9, align 8, !tbaa !19
  %58 = lshr i64 %57, 24
  %59 = trunc i64 %58 to i8
  %60 = load ptr, ptr %6, align 8, !tbaa !3
  %61 = getelementptr inbounds nuw %struct.ccm128_context, ptr %60, i32 0, i32 0
  %62 = getelementptr inbounds [16 x i8], ptr %61, i64 0, i64 12
  store i8 %59, ptr %62, align 4, !tbaa !11
  %63 = load i64, ptr %9, align 8, !tbaa !19
  %64 = lshr i64 %63, 16
  %65 = trunc i64 %64 to i8
  %66 = load ptr, ptr %6, align 8, !tbaa !3
  %67 = getelementptr inbounds nuw %struct.ccm128_context, ptr %66, i32 0, i32 0
  %68 = getelementptr inbounds [16 x i8], ptr %67, i64 0, i64 13
  store i8 %65, ptr %68, align 1, !tbaa !11
  %69 = load i64, ptr %9, align 8, !tbaa !19
  %70 = lshr i64 %69, 8
  %71 = trunc i64 %70 to i8
  %72 = load ptr, ptr %6, align 8, !tbaa !3
  %73 = getelementptr inbounds nuw %struct.ccm128_context, ptr %72, i32 0, i32 0
  %74 = getelementptr inbounds [16 x i8], ptr %73, i64 0, i64 14
  store i8 %71, ptr %74, align 2, !tbaa !11
  %75 = load i64, ptr %9, align 8, !tbaa !19
  %76 = trunc i64 %75 to i8
  %77 = load ptr, ptr %6, align 8, !tbaa !3
  %78 = getelementptr inbounds nuw %struct.ccm128_context, ptr %77, i32 0, i32 0
  %79 = getelementptr inbounds [16 x i8], ptr %78, i64 0, i64 15
  store i8 %76, ptr %79, align 1, !tbaa !11
  %80 = load ptr, ptr %6, align 8, !tbaa !3
  %81 = getelementptr inbounds nuw %struct.ccm128_context, ptr %80, i32 0, i32 0
  %82 = getelementptr inbounds [16 x i8], ptr %81, i64 0, i64 0
  %83 = load i8, ptr %82, align 8, !tbaa !11
  %84 = zext i8 %83 to i32
  %85 = and i32 %84, -65
  %86 = trunc i32 %85 to i8
  store i8 %86, ptr %82, align 8, !tbaa !11
  %87 = load ptr, ptr %6, align 8, !tbaa !3
  %88 = getelementptr inbounds nuw %struct.ccm128_context, ptr %87, i32 0, i32 0
  %89 = getelementptr inbounds [16 x i8], ptr %88, i64 0, i64 1
  %90 = load ptr, ptr %7, align 8, !tbaa !17
  %91 = load i32, ptr %10, align 4, !tbaa !8
  %92 = sub i32 14, %91
  %93 = zext i32 %92 to i64
  call void @llvm.memcpy.p0.p0.i64(ptr align 1 %89, ptr align 1 %90, i64 %93, i1 false)
  store i32 0, ptr %5, align 4
  store i32 1, ptr %11, align 4
  br label %94

94:                                               ; preds = %56, %23
  call void @llvm.lifetime.end.p0(i64 4, ptr %10) #4
  %95 = load i32, ptr %5, align 4
  ret i32 %95
}