; Function Attrs: mustprogress nofree norecurse nosync nounwind willreturn memory(argmem: readwrite) uwtable
define range(i32 -1, 1) i32 @CRYPTO_ccm128_setiv(ptr noundef captures(none) %0, ptr noundef readonly captures(none) %1, i64 noundef %2, i64 noundef %3) local_unnamed_addr #2 {
  %5 = load i8, ptr %0, align 8, !tbaa !3
  %6 = and i8 %5, 7
  %narrow = sub nuw nsw i8 14, %6
  %7 = zext nneg i8 %narrow to i64
  %8 = icmp ult i64 %2, %7
  br i1 %8, label %40, label %9

9:                                                ; preds = %4
  %10 = icmp samesign ugt i8 %6, 2
  br i1 %10, label %11, label %24

11:                                               ; preds = %9
  %12 = lshr i64 %3, 56
  %13 = trunc nuw i64 %12 to i8
  %14 = getelementptr inbounds nuw i8, ptr %0, i64 8
  store i8 %13, ptr %14, align 8, !tbaa !3
  %15 = lshr i64 %3, 48
  %16 = trunc i64 %15 to i8
  %17 = getelementptr inbounds nuw i8, ptr %0, i64 9
  store i8 %16, ptr %17, align 1, !tbaa !3
  %18 = lshr i64 %3, 40
  %19 = trunc i64 %18 to i8
  %20 = getelementptr inbounds nuw i8, ptr %0, i64 10
  store i8 %19, ptr %20, align 2, !tbaa !3
  %21 = lshr i64 %3, 32
  %22 = trunc i64 %21 to i8
  %23 = getelementptr inbounds nuw i8, ptr %0, i64 11
  store i8 %22, ptr %23, align 1, !tbaa !3
  br label %26

24:                                               ; preds = %9
  %25 = getelementptr inbounds nuw i8, ptr %0, i64 8
  store i64 0, ptr %25, align 8, !tbaa !3
  br label %26

26:                                               ; preds = %24, %11
  %27 = lshr i64 %3, 24
  %28 = trunc i64 %27 to i8
  %29 = getelementptr inbounds nuw i8, ptr %0, i64 12
  store i8 %28, ptr %29, align 4, !tbaa !3
  %30 = lshr i64 %3, 16
  %31 = trunc i64 %30 to i8
  %32 = getelementptr inbounds nuw i8, ptr %0, i64 13
  store i8 %31, ptr %32, align 1, !tbaa !3
  %33 = lshr i64 %3, 8
  %34 = trunc i64 %33 to i8
  %35 = getelementptr inbounds nuw i8, ptr %0, i64 14
  store i8 %34, ptr %35, align 2, !tbaa !3
  %36 = trunc i64 %3 to i8
  %37 = getelementptr inbounds nuw i8, ptr %0, i64 15
  store i8 %36, ptr %37, align 1, !tbaa !3
  %38 = and i8 %5, -65
  store i8 %38, ptr %0, align 8, !tbaa !3
  %39 = getelementptr inbounds nuw i8, ptr %0, i64 1
  tail call void @llvm.memcpy.p0.p0.i64(ptr noundef nonnull align 1 dereferenceable(1) %39, ptr noundef nonnull align 1 dereferenceable(1) %1, i64 %7, i1 false)
  br label %40

40:                                               ; preds = %4, %26
  %.0 = phi i32 [ 0, %26 ], [ -1, %4 ]
  ret i32 %.0
}